; Function Attrs: nounwind uwtable
define ptr @l_Lean_withHeartbeats___rarg___lambda__2(ptr noundef %0, ptr noundef %1, ptr noundef %2, ptr noundef %3, ptr noundef %4) #0 {
  tail call void @lean_inc_heartbeat() #5
  %6 = tail call noalias ptr @mi_malloc_small(i64 noundef 48) #5
  %7 = icmp eq ptr %6, null
  br i1 %7, label %8, label %lean_alloc_closure.exit

8:                                                ; preds = %5
  tail call void @lean_internal_panic_out_of_memory() #6
  unreachable

lean_alloc_closure.exit:                          ; preds = %5
  %9 = getelementptr inbounds nuw i8, ptr %6, i64 4
  store i32 1, ptr %6, align 4, !tbaa !8
  store i32 -184549328, ptr %9, align 4
  %10 = getelementptr inbounds nuw i8, ptr %6, i64 8
  store ptr @l_Lean_withHeartbeats___rarg___lambda__1___boxed, ptr %10, align 8, !tbaa !4
  %11 = getelementptr inbounds nuw i8, ptr %6, i64 16
  store i16 4, ptr %11, align 8, !tbaa !13
  %12 = getelementptr inbounds nuw i8, ptr %6, i64 18
  store i16 3, ptr %12, align 2, !tbaa !13
  %13 = getelementptr inbounds nuw i8, ptr %6, i64 24
  store ptr %0, ptr %13, align 8, !tbaa !4
  %14 = getelementptr inbounds nuw i8, ptr %6, i64 32
  store ptr %1, ptr %14, align 8, !tbaa !4
  %15 = getelementptr inbounds nuw i8, ptr %6, i64 40
  store ptr %4, ptr %15, align 8, !tbaa !4
  %16 = tail call ptr @lean_apply_4(ptr noundef %2, ptr noundef nonnull inttoptr (i64 1 to ptr), ptr noundef nonnull inttoptr (i64 1 to ptr), ptr noundef %3, ptr noundef nonnull %6) #5
  ret ptr %16
}